Certificate:
    Data:
        Version: 3 (0x2)
        Serial Number:
            2f:21:94:96:d6:d7:83:68:09:9c:ff:83:cd:3c:2c:a3:6d:7a:17:7f
        Signature Algorithm: sha256WithRSAEncryption
        Issuer: C=AU, ST=Some-State, O=Internet Widgits Pty Ltd, CN=smtplab.intra
        Validity
            Not Before: Jul 17 14:20:08 2020 GMT
            Not After : Jul 17 14:20:08 2023 GMT
        Subject: C=AU, ST=Some-State, O=Internet Widgits Pty Ltd, CN=smtplab.intra
        Subject Public Key Info:
            Public Key Algorithm: rsaEncryption
                RSA Public-Key: (2048 bit)
                Modulus:
                    00:c8:25:96:fa:e5:e1:47:77:b4:9a:e6:ba:d3:a6:
                    69:2d:ca:1a:2d:a3:35:86:d4:93:a7:94:43:46:73:
                    52:46:9a:57:74:8d:87:ab:66:93:85:c0:76:94:97:
                    7e:f6:ab:29:96:f7:03:da:0a:fa:91:48:61:c0:56:
                    a5:bb:26:8b:17:74:aa:f6:a0:0d:5b:18:56:bc:7d:
                    de:35:d4:37:a6:27:b8:ff:ca:d2:0a:8f:2a:93:0d:
                    63:f5:c2:0f:89:f0:80:e7:62:8a:1b:11:1f:f6:1b:
                    db:c0:c4:e8:a4:aa:c6:08:1c:dd:68:95:ed:9b:7f:
                    5d:fd:5a:ef:8d:26:c9:f1:5a:69:11:37:a0:80:27:
                    06:79:bb:0c:22:f4:2d:ed:e1:5e:60:94:3d:37:2a:
                    20:82:5f:20:21:43:90:99:2c:25:3c:96:5d:4d:5a:
                    91:e4:c0:fa:45:42:31:f7:99:76:84:57:b2:48:be:
                    52:b0:a7:ea:d5:6b:a0:56:8a:02:8b:7c:ce:d7:bb:
                    70:ec:b6:58:7f:42:6e:b5:4b:99:fe:97:c8:25:be:
                    99:e2:7c:5d:79:87:dd:37:5b:28:3a:a6:d1:a6:91:
                    34:eb:87:79:7a:6c:12:eb:cd:4b:8d:90:39:b1:6d:
                    ca:19:84:a6:e5:3c:30:25:b2:a2:0b:bd:bb:66:45:
                    ea:f1
                Exponent: 65537 (0x10001)
        X509v3 extensions:
            X509v3 Subject Key Identifier: 
                BE:A6:D3:92:44:53:4E:05:F9:20:D2:B9:80:0C:BE:B9:A7:DF:0C:F4
            X509v3 Authority Key Identifier: 
                keyid:BE:A6:D3:92:44:53:4E:05:F9:20:D2:B9:80:0C:BE:B9:A7:DF:0C:F4

            X509v3 Basic Constraints: critical
                CA:TRUE
    Signature Algorithm: sha256WithRSAEncryption
         9f:3f:c8:c9:85:77:9f:10:88:eb:39:8c:72:c6:d5:b8:40:35:
         95:d3:82:cc:95:7b:84:e1:31:0d:43:d8:e5:c5:a9:21:f1:9c:
         cb:4c:dc:3e:bf:b4:6f:7d:9d:ba:85:39:24:1c:bc:3e:b7:a2:
         19:ea:e7:71:2e:cb:be:b8:7f:9c:59:0b:24:f2:a6:11:79:a6:
         bf:6a:33:9d:cf:50:31:85:8c:50:12:c7:bd:8c:67:28:09:b5:
         1b:b7:3d:ea:e8:a3:61:cc:08:a1:04:cb:e0:51:1e:0a:70:57:
         59:e1:0f:7a:12:33:27:cb:8c:28:10:c2:b7:e3:77:40:ff:d0:
         53:82:63:ba:03:e1:bd:c1:bc:78:86:61:ec:4f:0b:57:aa:d0:
         1c:45:48:59:a1:1c:5d:9e:52:09:31:1f:f7:54:59:6a:65:3b:
         89:c2:41:0b:3e:a0:25:38:87:07:7b:a4:c6:8e:9d:78:4b:cf:
         f1:23:34:a8:f6:49:3f:0a:5c:b6:3a:7a:ad:9b:c1:45:9a:7a:
         fc:ae:e7:8e:a4:4e:21:0b:8a:5f:0b:4d:9f:da:5f:22:1a:7e:
         32:31:bd:87:d6:7a:c1:02:73:92:db:19:1c:54:70:fb:37:67:
         ff:6a:49:5a:15:6f:19:1f:fe:6b:06:4a:e3:36:88:db:5c:e7:
         77:91:57:f1
-----BEGIN CERTIFICATE-----
MIIDmzCCAoOgAwIBAgIULyGUltbXg2gJnP+DzTwso216F38wDQYJKoZIhvcNAQEL
BQAwXTELMAkGA1UEBhMCQVUxEzARBgNVBAgMClNvbWUtU3RhdGUxITAfBgNVBAoM
GEludGVybmV0IFdpZGdpdHMgUHR5IEx0ZDEWMBQGA1UEAwwNc210cGxhYi5pbnRy
YTAeFw0yMDA3MTcxNDIwMDhaFw0yMzA3MTcxNDIwMDhaMF0xCzAJBgNVBAYTAkFV
MRMwEQYDVQQIDApTb21lLVN0YXRlMSEwHwYDVQQKDBhJbnRlcm5ldCBXaWRnaXRz
IFB0eSBMdGQxFjAUBgNVBAMMDXNtdHBsYWIuaW50cmEwggEiMA0GCSqGSIb3DQEB
AQUAA4IBDwAwggEKAoIBAQDIJZb65eFHd7Sa5rrTpmktyhotozWG1JOnlENGc1JG
mld0jYerZpOFwHaUl372qymW9wPaCvqRSGHAVqW7JosXdKr2oA1bGFa8fd411Dem
J7j/ytIKjyqTDWP1wg+J8IDnYoobER/2G9vAxOikqsYIHN1ole2bf139Wu+NJsnx
WmkRN6CAJwZ5uwwi9C3t4V5glD03KiCCXyAhQ5CZLCU8ll1NWpHkwPpFQjH3mXaE
V7JIvlKwp+rVa6BWigKLfM7Xu3Dstlh/Qm61S5n+l8glvpnifF15h903Wyg6ptGm
kTTrh3l6bBLrzUuNkDmxbcoZhKblPDAlsqILvbtmRerxAgMBAAGjUzBRMB0GA1Ud
DgQWBBS+ptOSRFNOBfkg0rmADL65p98M9DAfBgNVHSMEGDAWgBS+ptOSRFNOBfkg
0rmADL65p98M9DAPBgNVHRMBAf8EBTADAQH/MA0GCSqGSIb3DQEBCwUAA4IBAQCf
P8jJhXefEIjrOYxyxtW4QDWV04LMlXuE4TENQ9jlxakh8ZzLTNw+v7RvfZ26hTkk
HLw+t6IZ6udxLsu+uH+cWQsk8qYReaa/ajOdz1AxhYxQEse9jGcoCbUbtz3q6KNh
zAihBMvgUR4KcFdZ4Q96EjMny4woEMK343dA/9BTgmO6A+G9wbx4hmHsTwtXqtAc
RUhZoRxdnlIJMR/3VFlqZTuJwkELPqAlOIcHe6TGjp14S8/xIzSo9kk/Cly2Onqt
m8FFmnr8rueOpE4hC4pfC02f2l8iGn4yMb2H1nrBAnOS2xkcVHD7N2f/aklaFW8Z
H/5rBkrjNojbXOd3kVfx
-----END CERTIFICATE-----
