-----BEGIN PRIVATE KEY-----
MIIEvQIBADANBgkqhkiG9w0BAQEFAASCBKcwggSjAgEAAoIBAQDu8MzjvDSW01n3
MqgiB3AeCKXctiDVpHthDPAXmJ/DRXGfOZzt2GT30YC3jDsVgdJd/r1lkVWB9TaH
y8clbPTQJ8auWc4u1Uv2FtKv+hWd20BlZjqwC+24s4FKSNAB/wLJ3udB64Kmzhvg
8weKfUNt8QlVztTPFcSVEPkZIOiISBtnCIJQThZ0SnX8JU443DKbq7mDatF5P4D+
2Pv0kTqtxFKSznb6KqEFZG4uMIX+SV6FEXsgNPybvuZT89AYT4k60DAbFDxun1Ur
raQgpTa11o9UQMLo9KshOpQcu41fF2M9Qk/k+TsZxw77VyzAMNoWwXt0kQliCEKn
M84sosHVAgMBAAECggEAZ7JFmUgioppS3v8zDKGhvMcQBHteQJnDmdjdkcABBePr
bai5PFe/afWYIRBQzAKtY3GcjKnILEBZTBHZ+ZoRnQzGIwCChLy43LIG+axVGU7/
4YG+Uoy6vH/aynxTGaqscSO1xVwKNY4Zd0TBrw6x5tLGtGCw5raRvAfDs24evJWH
8uG9VijB/QwaME72kBwqWZLPq7/n8r+Ufjoeug3pZTiiOPf7s2VpPTnaagi7CFYb
5B8Mzm5cg0vyGk3PQ1RQZn/os4sZyowzHcspBGUxXlV9Gi0R2sycC4NSqKLdUyMo
NeKX62Zr8yuhghpm5Lk9M1MqT8xDZiKtvaHDjC3qAQKBgQD3oDy3m3jBZ68mzSmP
yTEn4ffCvA1o3K47XZ6M53nIpBXWoLH0aFzgOWqnr2mobd9di55tIueVppbj/dcF
HWA32iIuOoV3BgwQYFD08EB8+68/dghT37rn8wZB4npawJhaYoOgNVafh0ESug1T
JHJDTjRc++T5ekQUKQH3og9DlQKBgQD3BV9LZn1gFgCu0nHvKB+ZB6zcNBR8sgeR
JeTmXSOC7lrfOlTrvXvEsoeYRKzvBBmI64aYke48zRSpscuOSWhKa/bCPyO9a0Hw
1dGGa2aQU+7dPLod2alPdyb/nmtpZddNUq6TnykjnRywLtHXvnx87Zha8qnWUJax
XISrqYH1QQKBgQCCTWll3IPgkeTS8CasqNwa9odfi4Eq6uUsDAmAb9XfxKhRNmIu
EDS/MLd04ZMhtB9TpEKLf1CJqQ3BjzN0V47oFPrjhJvyk9YJUAWJvlrQ6cfAByY+
rH43y+RBCyIDW1FQToKg7TBV5eBSMGEOnSEbVa2sOEi3FqV4TlPgsQCDOQKBgGnL
HzkHuAKC6d/1uV4X7RB5PQtCMtQE20DK3fHbSe41by3TqbMc//kKDRCluPrU4qrF
VGvbdBEONB9JSkiyH7xf6Nrgd8oUObWPnaDYNqDxkYenDn7iTaT+/vDTRGVrfH5d
Pu9yZwgdrb+3DaA8sMxAZdPtwddLxH5JhXiPrF0BAoGAZ5G464THf4ciV/2/RPGf
rYtHPOFWDCosZG7LZoLTrkOBLFM/FyRpVucf8TvkIohLtVZcPs5h76hzA/n8JrJV
4fQ1uPR7rvznyIGXyMc4O0ndaxjbiAzVo96VOSN8UpEcQWfy6tZE552ED+Xz7jUs
4Oxc9nYbyw2iWlExPTVMILI=
-----END PRIVATE KEY-----
Certificate:
    Data:
        Version: 3 (0x2)
        Serial Number:
            2f:21:94:96:d6:d7:83:68:09:9c:ff:83:cd:3c:2c:a3:6d:7a:17:80
        Signature Algorithm: sha256WithRSAEncryption
        Issuer: C=AU, ST=Some-State, O=Internet Widgits Pty Ltd, CN=smtplab.intra
        Validity
            Not Before: Jul 17 14:20:24 2020 GMT
            Not After : Jul 17 14:20:24 2021 GMT
        Subject: C=AU, ST=Some-State, O=Internet Widgits Pty Ltd, CN=mail.smtplab.intra
        Subject Public Key Info:
            Public Key Algorithm: rsaEncryption
                RSA Public-Key: (2048 bit)
                Modulus:
                    00:ee:f0:cc:e3:bc:34:96:d3:59:f7:32:a8:22:07:
                    70:1e:08:a5:dc:b6:20:d5:a4:7b:61:0c:f0:17:98:
                    9f:c3:45:71:9f:39:9c:ed:d8:64:f7:d1:80:b7:8c:
                    3b:15:81:d2:5d:fe:bd:65:91:55:81:f5:36:87:cb:
                    c7:25:6c:f4:d0:27:c6:ae:59:ce:2e:d5:4b:f6:16:
                    d2:af:fa:15:9d:db:40:65:66:3a:b0:0b:ed:b8:b3:
                    81:4a:48:d0:01:ff:02:c9:de:e7:41:eb:82:a6:ce:
                    1b:e0:f3:07:8a:7d:43:6d:f1:09:55:ce:d4:cf:15:
                    c4:95:10:f9:19:20:e8:88:48:1b:67:08:82:50:4e:
                    16:74:4a:75:fc:25:4e:38:dc:32:9b:ab:b9:83:6a:
                    d1:79:3f:80:fe:d8:fb:f4:91:3a:ad:c4:52:92:ce:
                    76:fa:2a:a1:05:64:6e:2e:30:85:fe:49:5e:85:11:
                    7b:20:34:fc:9b:be:e6:53:f3:d0:18:4f:89:3a:d0:
                    30:1b:14:3c:6e:9f:55:2b:ad:a4:20:a5:36:b5:d6:
                    8f:54:40:c2:e8:f4:ab:21:3a:94:1c:bb:8d:5f:17:
                    63:3d:42:4f:e4:f9:3b:19:c7:0e:fb:57:2c:c0:30:
                    da:16:c1:7b:74:91:09:62:08:42:a7:33:ce:2c:a2:
                    c1:d5
                Exponent: 65537 (0x10001)
        X509v3 extensions:
            X509v3 Basic Constraints: 
                CA:FALSE
            Netscape Comment: 
                OpenSSL Generated Certificate
            X509v3 Subject Key Identifier: 
                03:B2:C5:DC:7D:29:E7:36:68:43:E4:67:25:2B:62:2A:D7:96:4F:7D
            X509v3 Authority Key Identifier: 
                keyid:BE:A6:D3:92:44:53:4E:05:F9:20:D2:B9:80:0C:BE:B9:A7:DF:0C:F4

    Signature Algorithm: sha256WithRSAEncryption
         35:6d:ae:6c:6f:65:f7:e5:9c:39:10:b1:8b:1b:22:4a:78:2f:
         80:a7:c5:e7:f4:58:e9:c8:65:56:1f:08:3f:da:e7:a1:5e:9c:
         af:db:d4:1a:c3:ca:d1:85:fd:fc:9e:f3:f2:4c:c5:69:62:12:
         ca:f2:bc:1f:09:1d:cd:6b:3d:76:16:e9:4c:73:6b:ae:e8:34:
         ee:43:dc:cf:55:a2:7e:16:50:b6:35:61:b9:5e:8a:11:3e:01:
         20:df:6d:aa:e5:ee:5d:b1:a0:6b:44:91:63:23:d5:d2:40:aa:
         52:58:2c:e2:dd:40:b9:c3:61:e3:3e:e2:1d:6a:ed:c7:5d:d0:
         42:05:4f:1b:87:e5:ee:ac:66:55:e9:6d:24:8a:67:a8:99:e9:
         ec:2c:1c:0a:ff:b1:c7:54:40:31:a2:54:cc:45:c3:00:00:3d:
         3b:c7:eb:51:13:04:fd:b1:5b:e6:ca:a0:ba:f5:55:a9:3b:62:
         a6:58:3e:02:95:be:a4:bd:d8:15:8b:6e:70:8b:aa:c9:72:3c:
         60:63:ba:6b:e8:db:9f:44:2d:80:db:e5:bf:38:a1:51:00:b9:
         e8:7c:5c:50:f3:12:36:3b:4f:d5:34:c5:ab:79:5d:49:8f:3b:
         46:87:ad:7f:b0:5e:db:bd:6f:a4:ba:ef:f5:cd:c4:6e:99:6b:
         78:13:66:6a
-----BEGIN CERTIFICATE-----
MIIDyDCCArCgAwIBAgIULyGUltbXg2gJnP+DzTwso216F4AwDQYJKoZIhvcNAQEL
BQAwXTELMAkGA1UEBhMCQVUxEzARBgNVBAgMClNvbWUtU3RhdGUxITAfBgNVBAoM
GEludGVybmV0IFdpZGdpdHMgUHR5IEx0ZDEWMBQGA1UEAwwNc210cGxhYi5pbnRy
YTAeFw0yMDA3MTcxNDIwMjRaFw0yMTA3MTcxNDIwMjRaMGIxCzAJBgNVBAYTAkFV
MRMwEQYDVQQIDApTb21lLVN0YXRlMSEwHwYDVQQKDBhJbnRlcm5ldCBXaWRnaXRz
IFB0eSBMdGQxGzAZBgNVBAMMEm1haWwuc210cGxhYi5pbnRyYTCCASIwDQYJKoZI
hvcNAQEBBQADggEPADCCAQoCggEBAO7wzOO8NJbTWfcyqCIHcB4Ipdy2INWke2EM
8BeYn8NFcZ85nO3YZPfRgLeMOxWB0l3+vWWRVYH1NofLxyVs9NAnxq5Zzi7VS/YW
0q/6FZ3bQGVmOrAL7bizgUpI0AH/Asne50HrgqbOG+DzB4p9Q23xCVXO1M8VxJUQ
+Rkg6IhIG2cIglBOFnRKdfwlTjjcMpuruYNq0Xk/gP7Y+/SROq3EUpLOdvoqoQVk
bi4whf5JXoUReyA0/Ju+5lPz0BhPiTrQMBsUPG6fVSutpCClNrXWj1RAwuj0qyE6
lBy7jV8XYz1CT+T5OxnHDvtXLMAw2hbBe3SRCWIIQqczziyiwdUCAwEAAaN7MHkw
CQYDVR0TBAIwADAsBglghkgBhvhCAQ0EHxYdT3BlblNTTCBHZW5lcmF0ZWQgQ2Vy
dGlmaWNhdGUwHQYDVR0OBBYEFAOyxdx9Kec2aEPkZyUrYirXlk99MB8GA1UdIwQY
MBaAFL6m05JEU04F+SDSuYAMvrmn3wz0MA0GCSqGSIb3DQEBCwUAA4IBAQA1ba5s
b2X35Zw5ELGLGyJKeC+Ap8Xn9FjpyGVWHwg/2uehXpyv29Qaw8rRhf38nvPyTMVp
YhLK8rwfCR3Naz12FulMc2uu6DTuQ9zPVaJ+FlC2NWG5XooRPgEg322q5e5dsaBr
RJFjI9XSQKpSWCzi3UC5w2HjPuIdau3HXdBCBU8bh+XurGZV6W0kimeomensLBwK
/7HHVEAxolTMRcMAAD07x+tREwT9sVvmyqC69VWpO2KmWD4Clb6kvdgVi25wi6rJ
cjxgY7pr6NufRC2A2+W/OKFRALnofFxQ8xI2O0/VNMWreV1JjztGh61/sF7bvW+k
uu/1zcRumWt4E2Zq
-----END CERTIFICATE-----
